target datalayout = "e-m:e-p270:32:32-p271:32:32-p272:64:64-i64:64-i128:128-f80:128-n8:16:32:64-S128"
target triple = "x86_64-pc-linux-gnu"

%struct.ResampleContext = type { ptr, ptr, i32, i32, i32, i32, i32, i32, i32, i32, i32, i32, i32, i32, i32, double, double, i32, i32, i32, i32, %struct.anon }
%struct.anon = type { ptr, ptr, ptr }
%struct.AudioData = type { [64 x ptr], ptr, i32, i32, i32, i32, i32 }

; Function Attrs: nounwind uwtable
define internal i32 @invert_initial_buffer(ptr noundef %0, ptr noundef %1, ptr noundef %2, i32 noundef %3, ptr noundef %4, ptr noundef %5) #0 {
  %7 = alloca i32, align 4
  %8 = alloca ptr, align 8
  %9 = alloca ptr, align 8
  %10 = alloca ptr, align 8
  %11 = alloca i32, align 4
  %12 = alloca ptr, align 8
  %13 = alloca ptr, align 8
  %14 = alloca i32, align 4
  %15 = alloca i32, align 4
  %16 = alloca i32, align 4
  %17 = alloca i32, align 4
  %18 = alloca i32, align 4
  store ptr %0, ptr %8, align 8, !tbaa !4
  store ptr %1, ptr %9, align 8, !tbaa !42
  store ptr %2, ptr %10, align 8, !tbaa !42
  store i32 %3, ptr %11, align 4, !tbaa !9
  store ptr %4, ptr %12, align 8, !tbaa !44
  store ptr %5, ptr %13, align 8, !tbaa !44
  call void @llvm.lifetime.start.p0(i64 4, ptr %14) #8
  call void @llvm.lifetime.start.p0(i64 4, ptr %15) #8
  call void @llvm.lifetime.start.p0(i64 4, ptr %16) #8
  %19 = load i32, ptr %11, align 4, !tbaa !9
  %20 = load ptr, ptr %13, align 8, !tbaa !44
  %21 = load i32, ptr %20, align 4, !tbaa !9
  %22 = add nsw i32 %19, %21
  %23 = load ptr, ptr %8, align 8, !tbaa !4
  %24 = getelementptr inbounds nuw %struct.ResampleContext, ptr %23, i32 0, i32 2
  %25 = load i32, ptr %24, align 8, !tbaa !20
  %26 = add nsw i32 %25, 1
  %27 = icmp sgt i32 %22, %26
  br i1 %27, label %28, label %33

28:                                               ; preds = %6
  %29 = load ptr, ptr %8, align 8, !tbaa !4
  %30 = getelementptr inbounds nuw %struct.ResampleContext, ptr %29, i32 0, i32 2
  %31 = load i32, ptr %30, align 8, !tbaa !20
  %32 = add nsw i32 %31, 1
  br label %38

33:                                               ; preds = %6
  %34 = load i32, ptr %11, align 4, !tbaa !9
  %35 = load ptr, ptr %13, align 8, !tbaa !44
  %36 = load i32, ptr %35, align 4, !tbaa !9
  %37 = add nsw i32 %34, %36
  br label %38

38:                                               ; preds = %33, %28
  %39 = phi i32 [ %32, %28 ], [ %37, %33 ]
  store i32 %39, ptr %16, align 4, !tbaa !9
  call void @llvm.lifetime.start.p0(i64 4, ptr %17) #8
  %40 = load ptr, ptr %8, align 8, !tbaa !4
  %41 = getelementptr inbounds nuw %struct.ResampleContext, ptr %40, i32 0, i32 8
  %42 = load i32, ptr %41, align 8, !tbaa !37
  %43 = icmp sge i32 %42, 0
  br i1 %43, label %44, label %45

44:                                               ; preds = %38
  store i32 0, ptr %7, align 4
  store i32 1, ptr %18, align 4
  br label %253

45:                                               ; preds = %38
  %46 = load ptr, ptr %9, align 8, !tbaa !42
  %47 = load ptr, ptr %8, align 8, !tbaa !4
  %48 = getelementptr inbounds nuw %struct.ResampleContext, ptr %47, i32 0, i32 2
  %49 = load i32, ptr %48, align 8, !tbaa !20
  %50 = mul nsw i32 %49, 2
  %51 = add nsw i32 %50, 1
  %52 = call i32 @swri_realloc_audio(ptr noundef %46, i32 noundef %51)
  store i32 %52, ptr %17, align 4, !tbaa !9
  %53 = icmp slt i32 %52, 0
  br i1 %53, label %54, label %56

54:                                               ; preds = %45
  %55 = load i32, ptr %17, align 4, !tbaa !9
  store i32 %55, ptr %7, align 4
  store i32 1, ptr %18, align 4
  br label %253

56:                                               ; preds = %45
  %57 = load ptr, ptr %13, align 8, !tbaa !44
  %58 = load i32, ptr %57, align 4, !tbaa !9
  store i32 %58, ptr %14, align 4, !tbaa !9
  br label %59

59:                                               ; preds = %112, %56
  %60 = load i32, ptr %14, align 4, !tbaa !9
  %61 = load i32, ptr %16, align 4, !tbaa !9
  %62 = icmp slt i32 %60, %61
  br i1 %62, label %63, label %115

63:                                               ; preds = %59
  store i32 0, ptr %15, align 4, !tbaa !9
  br label %64

64:                                               ; preds = %108, %63
  %65 = load i32, ptr %15, align 4, !tbaa !9
  %66 = load ptr, ptr %10, align 8, !tbaa !42
  %67 = getelementptr inbounds nuw %struct.AudioData, ptr %66, i32 0, i32 2
  %68 = load i32, ptr %67, align 8, !tbaa !48
  %69 = icmp slt i32 %65, %68
  br i1 %69, label %70, label %111

70:                                               ; preds = %64
  %71 = load ptr, ptr %9, align 8, !tbaa !42
  %72 = getelementptr inbounds nuw %struct.AudioData, ptr %71, i32 0, i32 0
  %73 = load i32, ptr %15, align 4, !tbaa !9
  %74 = sext i32 %73 to i64
  %75 = getelementptr inbounds [64 x ptr], ptr %72, i64 0, i64 %74
  %76 = load ptr, ptr %75, align 8, !tbaa !51
  %77 = load ptr, ptr %8, align 8, !tbaa !4
  %78 = getelementptr inbounds nuw %struct.ResampleContext, ptr %77, i32 0, i32 2
  %79 = load i32, ptr %78, align 8, !tbaa !20
  %80 = load i32, ptr %14, align 4, !tbaa !9
  %81 = add nsw i32 %79, %80
  %82 = load ptr, ptr %8, align 8, !tbaa !4
  %83 = getelementptr inbounds nuw %struct.ResampleContext, ptr %82, i32 0, i32 18
  %84 = load i32, ptr %83, align 4, !tbaa !24
  %85 = mul nsw i32 %81, %84
  %86 = sext i32 %85 to i64
  %87 = getelementptr inbounds i8, ptr %76, i64 %86
  %88 = load ptr, ptr %10, align 8, !tbaa !42
  %89 = getelementptr inbounds nuw %struct.AudioData, ptr %88, i32 0, i32 0
  %90 = load i32, ptr %15, align 4, !tbaa !9
  %91 = sext i32 %90 to i64
  %92 = getelementptr inbounds [64 x ptr], ptr %89, i64 0, i64 %91
  %93 = load ptr, ptr %92, align 8, !tbaa !51
  %94 = load i32, ptr %14, align 4, !tbaa !9
  %95 = load ptr, ptr %13, align 8, !tbaa !44
  %96 = load i32, ptr %95, align 4, !tbaa !9
  %97 = sub nsw i32 %94, %96
  %98 = load ptr, ptr %8, align 8, !tbaa !4
  %99 = getelementptr inbounds nuw %struct.ResampleContext, ptr %98, i32 0, i32 18
  %100 = load i32, ptr %99, align 4, !tbaa !24
  %101 = mul nsw i32 %97, %100
  %102 = sext i32 %101 to i64
  %103 = getelementptr inbounds i8, ptr %93, i64 %102
  %104 = load ptr, ptr %8, align 8, !tbaa !4
  %105 = getelementptr inbounds nuw %struct.ResampleContext, ptr %104, i32 0, i32 18
  %106 = load i32, ptr %105, align 4, !tbaa !24
  %107 = sext i32 %106 to i64
  call void @llvm.memcpy.p0.p0.i64(ptr align 1 %87, ptr align 1 %103, i64 %107, i1 false)
  br label %108

108:                                              ; preds = %70
  %109 = load i32, ptr %15, align 4, !tbaa !9
  %110 = add nsw i32 %109, 1
  store i32 %110, ptr %15, align 4, !tbaa !9
  br label %64, !llvm.loop !73

111:                                              ; preds = %64
  br label %112

112:                                              ; preds = %111
  %113 = load i32, ptr %14, align 4, !tbaa !9
  %114 = add nsw i32 %113, 1
  store i32 %114, ptr %14, align 4, !tbaa !9
  br label %59, !llvm.loop !74

115:                                              ; preds = %59
  %116 = load i32, ptr %16, align 4, !tbaa !9
  %117 = load ptr, ptr %8, align 8, !tbaa !4
  %118 = getelementptr inbounds nuw %struct.ResampleContext, ptr %117, i32 0, i32 2
  %119 = load i32, ptr %118, align 8, !tbaa !20
  %120 = add nsw i32 %119, 1
  %121 = icmp slt i32 %116, %120
  br i1 %121, label %122, label %129

122:                                              ; preds = %115
  %123 = load i32, ptr %16, align 4, !tbaa !9
  %124 = load ptr, ptr %13, align 8, !tbaa !44
  store i32 %123, ptr %124, align 4, !tbaa !9
  %125 = load ptr, ptr %8, align 8, !tbaa !4
  %126 = getelementptr inbounds nuw %struct.ResampleContext, ptr %125, i32 0, i32 2
  %127 = load i32, ptr %126, align 8, !tbaa !20
  %128 = load ptr, ptr %12, align 8, !tbaa !44
  store i32 %127, ptr %128, align 4, !tbaa !9
  store i32 2147483647, ptr %7, align 4
  store i32 1, ptr %18, align 4
  br label %253

129:                                              ; preds = %115
  store i32 1, ptr %14, align 4, !tbaa !9
  br label %130

130:                                              ; preds = %186, %129
  %131 = load i32, ptr %14, align 4, !tbaa !9
  %132 = load ptr, ptr %8, align 8, !tbaa !4
  %133 = getelementptr inbounds nuw %struct.ResampleContext, ptr %132, i32 0, i32 2
  %134 = load i32, ptr %133, align 8, !tbaa !20
  %135 = icmp sle i32 %131, %134
  br i1 %135, label %136, label %189

136:                                              ; preds = %130
  store i32 0, ptr %15, align 4, !tbaa !9
  br label %137

137:                                              ; preds = %182, %136
  %138 = load i32, ptr %15, align 4, !tbaa !9
  %139 = load ptr, ptr %10, align 8, !tbaa !42
  %140 = getelementptr inbounds nuw %struct.AudioData, ptr %139, i32 0, i32 2
  %141 = load i32, ptr %140, align 8, !tbaa !48
  %142 = icmp slt i32 %138, %141
  br i1 %142, label %143, label %185

143:                                              ; preds = %137
  %144 = load ptr, ptr %9, align 8, !tbaa !42
  %145 = getelementptr inbounds nuw %struct.AudioData, ptr %144, i32 0, i32 0
  %146 = load i32, ptr %15, align 4, !tbaa !9
  %147 = sext i32 %146 to i64
  %148 = getelementptr inbounds [64 x ptr], ptr %145, i64 0, i64 %147
  %149 = load ptr, ptr %148, align 8, !tbaa !51
  %150 = load ptr, ptr %8, align 8, !tbaa !4
  %151 = getelementptr inbounds nuw %struct.ResampleContext, ptr %150, i32 0, i32 2
  %152 = load i32, ptr %151, align 8, !tbaa !20
  %153 = load i32, ptr %14, align 4, !tbaa !9
  %154 = sub nsw i32 %152, %153
  %155 = load ptr, ptr %8, align 8, !tbaa !4
  %156 = getelementptr inbounds nuw %struct.ResampleContext, ptr %155, i32 0, i32 18
  %157 = load i32, ptr %156, align 4, !tbaa !24
  %158 = mul nsw i32 %154, %157
  %159 = sext i32 %158 to i64
  %160 = getelementptr inbounds i8, ptr %149, i64 %159
  %161 = load ptr, ptr %9, align 8, !tbaa !42
  %162 = getelementptr inbounds nuw %struct.AudioData, ptr %161, i32 0, i32 0
  %163 = load i32, ptr %15, align 4, !tbaa !9
  %164 = sext i32 %163 to i64
  %165 = getelementptr inbounds [64 x ptr], ptr %162, i64 0, i64 %164
  %166 = load ptr, ptr %165, align 8, !tbaa !51
  %167 = load ptr, ptr %8, align 8, !tbaa !4
  %168 = getelementptr inbounds nuw %struct.ResampleContext, ptr %167, i32 0, i32 2
  %169 = load i32, ptr %168, align 8, !tbaa !20
  %170 = load i32, ptr %14, align 4, !tbaa !9
  %171 = add nsw i32 %169, %170
  %172 = load ptr, ptr %8, align 8, !tbaa !4
  %173 = getelementptr inbounds nuw %struct.ResampleContext, ptr %172, i32 0, i32 18
  %174 = load i32, ptr %173, align 4, !tbaa !24
  %175 = mul nsw i32 %171, %174
  %176 = sext i32 %175 to i64
  %177 = getelementptr inbounds i8, ptr %166, i64 %176
  %178 = load ptr, ptr %8, align 8, !tbaa !4
  %179 = getelementptr inbounds nuw %struct.ResampleContext, ptr %178, i32 0, i32 18
  %180 = load i32, ptr %179, align 4, !tbaa !24
  %181 = sext i32 %180 to i64
  call void @llvm.memcpy.p0.p0.i64(ptr align 1 %160, ptr align 1 %177, i64 %181, i1 false)
  br label %182

182:                                              ; preds = %143
  %183 = load i32, ptr %15, align 4, !tbaa !9
  %184 = add nsw i32 %183, 1
  store i32 %184, ptr %15, align 4, !tbaa !9
  br label %137, !llvm.loop !75

185:                                              ; preds = %137
  br label %186

186:                                              ; preds = %185
  %187 = load i32, ptr %14, align 4, !tbaa !9
  %188 = add nsw i32 %187, 1
  store i32 %188, ptr %14, align 4, !tbaa !9
  br label %130, !llvm.loop !76

189:                                              ; preds = %130
  %190 = load i32, ptr %16, align 4, !tbaa !9
  %191 = load ptr, ptr %13, align 8, !tbaa !44
  %192 = load i32, ptr %191, align 4, !tbaa !9
  %193 = sub nsw i32 %190, %192
  store i32 %193, ptr %17, align 4, !tbaa !9
  %194 = load ptr, ptr %8, align 8, !tbaa !4
  %195 = getelementptr inbounds nuw %struct.ResampleContext, ptr %194, i32 0, i32 2
  %196 = load i32, ptr %195, align 8, !tbaa !20
  %197 = load ptr, ptr %12, align 8, !tbaa !44
  store i32 %196, ptr %197, align 4, !tbaa !9
  br label %198

198:                                              ; preds = %203, %189
  %199 = load ptr, ptr %8, align 8, !tbaa !4
  %200 = getelementptr inbounds nuw %struct.ResampleContext, ptr %199, i32 0, i32 8
  %201 = load i32, ptr %200, align 8, !tbaa !37
  %202 = icmp slt i32 %201, 0
  br i1 %202, label %203, label %214

203:                                              ; preds = %198
  %204 = load ptr, ptr %12, align 8, !tbaa !44
  %205 = load i32, ptr %204, align 4, !tbaa !9
  %206 = add nsw i32 %205, -1
  store i32 %206, ptr %204, align 4, !tbaa !9
  %207 = load ptr, ptr %8, align 8, !tbaa !4
  %208 = getelementptr inbounds nuw %struct.ResampleContext, ptr %207, i32 0, i32 12
  %209 = load i32, ptr %208, align 8, !tbaa !13
  %210 = load ptr, ptr %8, align 8, !tbaa !4
  %211 = getelementptr inbounds nuw %struct.ResampleContext, ptr %210, i32 0, i32 8
  %212 = load i32, ptr %211, align 8, !tbaa !37
  %213 = add nsw i32 %212, %209
  store i32 %213, ptr %211, align 8, !tbaa !37
  br label %198, !llvm.loop !77

214:                                              ; preds = %198
  %215 = load ptr, ptr %13, align 8, !tbaa !44
  %216 = load i32, ptr %215, align 4, !tbaa !9
  %217 = load ptr, ptr %8, align 8, !tbaa !4
  %218 = getelementptr inbounds nuw %struct.ResampleContext, ptr %217, i32 0, i32 2
  %219 = load i32, ptr %218, align 8, !tbaa !20
  %220 = add nsw i32 %216, %219
  %221 = load ptr, ptr %8, align 8, !tbaa !4
  %222 = getelementptr inbounds nuw %struct.ResampleContext, ptr %221, i32 0, i32 2
  %223 = load i32, ptr %222, align 8, !tbaa !20
  %224 = mul nsw i32 %223, 2
  %225 = add nsw i32 1, %224
  %226 = icmp sgt i32 %220, %225
  br i1 %226, label %227, label %234

227:                                              ; preds = %214
  %228 = load ptr, ptr %13, align 8, !tbaa !44
  %229 = load i32, ptr %228, align 4, !tbaa !9
  %230 = load ptr, ptr %8, align 8, !tbaa !4
  %231 = getelementptr inbounds nuw %struct.ResampleContext, ptr %230, i32 0, i32 2
  %232 = load i32, ptr %231, align 8, !tbaa !20
  %233 = add nsw i32 %229, %232
  br label %240

234:                                              ; preds = %214
  %235 = load ptr, ptr %8, align 8, !tbaa !4
  %236 = getelementptr inbounds nuw %struct.ResampleContext, ptr %235, i32 0, i32 2
  %237 = load i32, ptr %236, align 8, !tbaa !20
  %238 = mul nsw i32 %237, 2
  %239 = add nsw i32 1, %238
  br label %240

240:                                              ; preds = %234, %227
  %241 = phi i32 [ %233, %227 ], [ %239, %234 ]
  %242 = load ptr, ptr %12, align 8, !tbaa !44
  %243 = load i32, ptr %242, align 4, !tbaa !9
  %244 = sub nsw i32 %241, %243
  %245 = load ptr, ptr %13, align 8, !tbaa !44
  store i32 %244, ptr %245, align 4, !tbaa !9
  %246 = load i32, ptr %17, align 4, !tbaa !9
  %247 = icmp sgt i32 %246, 0
  br i1 %247, label %248, label %250

248:                                              ; preds = %240
  %249 = load i32, ptr %17, align 4, !tbaa !9
  br label %251

250:                                              ; preds = %240
  br label %251

251:                                              ; preds = %250, %248
  %252 = phi i32 [ %249, %248 ], [ 0, %250 ]
  store i32 %252, ptr %7, align 4
  store i32 1, ptr %18, align 4
  br label %253

253:                                              ; preds = %251, %122, %54, %44
  call void @llvm.lifetime.end.p0(i64 4, ptr %17) #8
  call void @llvm.lifetime.end.p0(i64 4, ptr %16) #8
  call void @llvm.lifetime.end.p0(i64 4, ptr %15) #8
  call void @llvm.lifetime.end.p0(i64 4, ptr %14) #8
  %254 = load i32, ptr %7, align 4
  ret i32 %254
}