; Function Attrs: nounwind uwtable
define internal i32 @invert_initial_buffer(ptr noundef captures(none) %0, ptr noundef %1, ptr noundef readonly captures(none) %2, i32 noundef %3, ptr noundef captures(none) %4, ptr noundef captures(none) %5) #0 {
  %7 = load i32, ptr %5, align 4, !tbaa !9
  %8 = add i32 %7, %3
  %9 = getelementptr inbounds nuw i8, ptr %0, i64 16
  %10 = load i32, ptr %9, align 8, !tbaa !19
  %11 = add i32 %10, 1
  %. = tail call i32 @llvm.smin.i32(i32 %8, i32 %11)
  %12 = getelementptr inbounds nuw i8, ptr %0, i64 40
  %13 = load i32, ptr %12, align 8, !tbaa !36
  %14 = icmp sgt i32 %13, -1
  br i1 %14, label %98, label %15

15:                                               ; preds = %6
  %16 = shl nsw i32 %10, 1
  %17 = or disjoint i32 %16, 1
  %18 = tail call i32 @swri_realloc_audio(ptr noundef %1, i32 noundef %17) #9
  %19 = icmp slt i32 %18, 0
  br i1 %19, label %98, label %20

20:                                               ; preds = %15
  %21 = load i32, ptr %5, align 4, !tbaa !9
  %22 = icmp slt i32 %21, %.
  br i1 %22, label %.preheader82.lr.ph, label %._crit_edge85

.preheader82.lr.ph:                               ; preds = %20
  %23 = getelementptr inbounds nuw i8, ptr %2, i64 520
  %24 = getelementptr inbounds nuw i8, ptr %0, i64 92
  %25 = load i32, ptr %23, align 8, !tbaa !38
  %26 = icmp sgt i32 %25, 0
  br i1 %26, label %.preheader82, label %._crit_edge85

.preheader82:                                     ; preds = %.preheader82.lr.ph, %._crit_edge
  %27 = phi i32 [ %48, %._crit_edge ], [ %25, %.preheader82.lr.ph ]
  %.07084 = phi i32 [ %49, %._crit_edge ], [ %21, %.preheader82.lr.ph ]
  %28 = icmp sgt i32 %27, 0
  br i1 %28, label %.lr.ph, label %._crit_edge

.lr.ph:                                           ; preds = %.preheader82, %.lr.ph
  %indvars.iv = phi i64 [ %indvars.iv.next, %.lr.ph ], [ 0, %.preheader82 ]
  %29 = getelementptr inbounds nuw [64 x ptr], ptr %1, i64 0, i64 %indvars.iv
  %30 = load ptr, ptr %29, align 8, !tbaa !41
  %31 = load i32, ptr %9, align 8, !tbaa !19
  %32 = add nsw i32 %31, %.07084
  %33 = load i32, ptr %24, align 4, !tbaa !23
  %34 = mul nsw i32 %32, %33
  %35 = sext i32 %34 to i64
  %36 = getelementptr inbounds i8, ptr %30, i64 %35
  %37 = getelementptr inbounds nuw [64 x ptr], ptr %2, i64 0, i64 %indvars.iv
  %38 = load ptr, ptr %37, align 8, !tbaa !41
  %39 = load i32, ptr %5, align 4, !tbaa !9
  %40 = sub nsw i32 %.07084, %39
  %41 = mul nsw i32 %40, %33
  %42 = sext i32 %41 to i64
  %43 = getelementptr inbounds i8, ptr %38, i64 %42
  %44 = sext i32 %33 to i64
  tail call void @llvm.memcpy.p0.p0.i64(ptr align 1 %36, ptr align 1 %43, i64 %44, i1 false)
  %indvars.iv.next = add nuw nsw i64 %indvars.iv, 1
  %45 = load i32, ptr %23, align 8, !tbaa !38
  %46 = sext i32 %45 to i64
  %47 = icmp slt i64 %indvars.iv.next, %46
  br i1 %47, label %.lr.ph, label %._crit_edge, !llvm.loop !62

._crit_edge:                                      ; preds = %.lr.ph, %.preheader82
  %48 = phi i32 [ %27, %.preheader82 ], [ %45, %.lr.ph ]
  %49 = add nsw i32 %.07084, 1
  %exitcond.not = icmp eq i32 %49, %.
  br i1 %exitcond.not, label %._crit_edge85, label %.preheader82, !llvm.loop !63

._crit_edge85:                                    ; preds = %._crit_edge, %.preheader82.lr.ph, %20
  %50 = load i32, ptr %9, align 8, !tbaa !19
  %.not = icmp sgt i32 %., %50
  br i1 %.not, label %.preheader81, label %55

.preheader81:                                     ; preds = %._crit_edge85
  %.not7989 = icmp slt i32 %50, 1
  br i1 %.not7989, label %._crit_edge91, label %.preheader.lr.ph

.preheader.lr.ph:                                 ; preds = %.preheader81
  %51 = getelementptr inbounds nuw i8, ptr %2, i64 520
  %52 = getelementptr inbounds nuw i8, ptr %0, i64 92
  %53 = load i32, ptr %51, align 8, !tbaa !38
  %54 = icmp sgt i32 %53, 0
  br i1 %54, label %.preheader, label %._crit_edge91

55:                                               ; preds = %._crit_edge85
  store i32 %., ptr %5, align 4, !tbaa !9
  %56 = load i32, ptr %9, align 8, !tbaa !19
  store i32 %56, ptr %4, align 4, !tbaa !9
  br label %98

.preheader:                                       ; preds = %.preheader.lr.ph, %._crit_edge88
  %57 = phi i32 [ %76, %._crit_edge88 ], [ %50, %.preheader.lr.ph ]
  %58 = phi i32 [ %77, %._crit_edge88 ], [ %53, %.preheader.lr.ph ]
  %.17190 = phi i32 [ %78, %._crit_edge88 ], [ 1, %.preheader.lr.ph ]
  %59 = icmp sgt i32 %58, 0
  br i1 %59, label %.lr.ph87, label %._crit_edge88

.lr.ph87:                                         ; preds = %.preheader, %.lr.ph87
  %indvars.iv99 = phi i64 [ %indvars.iv.next100, %.lr.ph87 ], [ 0, %.preheader ]
  %60 = getelementptr inbounds nuw [64 x ptr], ptr %1, i64 0, i64 %indvars.iv99
  %61 = load ptr, ptr %60, align 8, !tbaa !41
  %62 = load i32, ptr %9, align 8, !tbaa !19
  %63 = sub nsw i32 %62, %.17190
  %64 = load i32, ptr %52, align 4, !tbaa !23
  %65 = mul nsw i32 %63, %64
  %66 = sext i32 %65 to i64
  %67 = getelementptr inbounds i8, ptr %61, i64 %66
  %68 = add nsw i32 %62, %.17190
  %69 = mul nsw i32 %68, %64
  %70 = sext i32 %69 to i64
  %71 = getelementptr inbounds i8, ptr %61, i64 %70
  %72 = sext i32 %64 to i64
  tail call void @llvm.memcpy.p0.p0.i64(ptr align 1 %67, ptr align 1 %71, i64 %72, i1 false)
  %indvars.iv.next100 = add nuw nsw i64 %indvars.iv99, 1
  %73 = load i32, ptr %51, align 8, !tbaa !38
  %74 = sext i32 %73 to i64
  %75 = icmp slt i64 %indvars.iv.next100, %74
  br i1 %75, label %.lr.ph87, label %._crit_edge88.loopexit, !llvm.loop !65

._crit_edge88.loopexit:                           ; preds = %.lr.ph87
  %.pre = load i32, ptr %9, align 8, !tbaa !19
  br label %._crit_edge88

._crit_edge88:                                    ; preds = %._crit_edge88.loopexit, %.preheader
  %76 = phi i32 [ %.pre, %._crit_edge88.loopexit ], [ %57, %.preheader ]
  %77 = phi i32 [ %73, %._crit_edge88.loopexit ], [ %58, %.preheader ]
  %78 = add nuw nsw i32 %.17190, 1
  %.not79.not = icmp slt i32 %.17190, %76
  br i1 %.not79.not, label %.preheader, label %._crit_edge91, !llvm.loop !66

._crit_edge91:                                    ; preds = %._crit_edge88, %.preheader.lr.ph, %.preheader81
  %.lcssa = phi i32 [ %50, %.preheader81 ], [ %50, %.preheader.lr.ph ], [ %76, %._crit_edge88 ]
  %79 = load i32, ptr %5, align 4, !tbaa !9
  %80 = sub nsw i32 %., %79
  store i32 %.lcssa, ptr %4, align 4, !tbaa !9
  %.pr = load i32, ptr %12, align 8, !tbaa !36
  %81 = icmp slt i32 %.pr, 0
  br i1 %81, label %.lr.ph93, label %._crit_edge94

.lr.ph93:                                         ; preds = %._crit_edge91
  %82 = getelementptr inbounds nuw i8, ptr %0, i64 56
  br label %83

83:                                               ; preds = %.lr.ph93, %83
  %84 = load i32, ptr %4, align 4, !tbaa !9
  %85 = add nsw i32 %84, -1
  store i32 %85, ptr %4, align 4, !tbaa !9
  %86 = load i32, ptr %82, align 8, !tbaa !11
  %87 = load i32, ptr %12, align 8, !tbaa !36
  %88 = add nsw i32 %87, %86
  store i32 %88, ptr %12, align 8, !tbaa !36
  %89 = icmp slt i32 %88, 0
  br i1 %89, label %83, label %._crit_edge94.loopexit, !llvm.loop !67

._crit_edge94.loopexit:                           ; preds = %83
  %.pre102 = load i32, ptr %4, align 4, !tbaa !9
  br label %._crit_edge94

._crit_edge94:                                    ; preds = %._crit_edge94.loopexit, %._crit_edge91
  %90 = phi i32 [ %.pre102, %._crit_edge94.loopexit ], [ %.lcssa, %._crit_edge91 ]
  %91 = load i32, ptr %5, align 4, !tbaa !9
  %92 = load i32, ptr %9, align 8, !tbaa !19
  %93 = add nsw i32 %92, %91
  %94 = shl nsw i32 %92, 1
  %95 = or disjoint i32 %94, 1
  %.80 = tail call i32 @llvm.smax.i32(i32 %93, i32 %95)
  %96 = sub nsw i32 %.80, %90
  store i32 %96, ptr %5, align 4, !tbaa !9
  %97 = tail call i32 @llvm.smax.i32(i32 %80, i32 0)
  br label %98

98:                                               ; preds = %15, %6, %._crit_edge94, %55
  %.0 = phi i32 [ 2147483647, %55 ], [ %97, %._crit_edge94 ], [ 0, %6 ], [ %18, %15 ]
  ret i32 %.0
}